target datalayout = "e-m:e-p270:32:32-p271:32:32-p272:64:64-i64:64-i128:128-f80:128-n8:16:32:64-S128"
target triple = "x86_64-pc-linux-gnu"

%struct.ossl_param_st = type { ptr, i32, ptr, i64, i64 }

@.str = private unnamed_addr constant [5 x i8] c"HKDF\00", align 1
@.str.1 = private unnamed_addr constant [10 x i8] c"key-check\00", align 1
@.str.2 = private unnamed_addr constant [5 x i8] c"mode\00", align 1
@.str.3 = private unnamed_addr constant [7 x i8] c"digest\00", align 1
@.str.4 = private unnamed_addr constant [5 x i8] c"salt\00", align 1
@.str.5 = private unnamed_addr constant [4 x i8] c"key\00", align 1

; Function Attrs: nounwind uwtable
define i32 @ossl_quic_hkdf_extract(ptr noundef %0, ptr noundef %1, ptr noundef %2, ptr noundef %3, i64 noundef %4, ptr noundef %5, i64 noundef %6, ptr noundef %7, i64 noundef %8) #0 {
  %10 = alloca ptr, align 8
  %11 = alloca ptr, align 8
  %12 = alloca ptr, align 8
  %13 = alloca ptr, align 8
  %14 = alloca i64, align 8
  %15 = alloca ptr, align 8
  %16 = alloca i64, align 8
  %17 = alloca ptr, align 8
  %18 = alloca i64, align 8
  %19 = alloca i32, align 4
  %20 = alloca ptr, align 8
  %21 = alloca ptr, align 8
  %22 = alloca [8 x %struct.ossl_param_st], align 16
  %23 = alloca ptr, align 8
  %24 = alloca i32, align 4
  %25 = alloca i32, align 4
  %26 = alloca ptr, align 8
  %27 = alloca %struct.ossl_param_st, align 8
  %28 = alloca %struct.ossl_param_st, align 8
  %29 = alloca %struct.ossl_param_st, align 8
  %30 = alloca %struct.ossl_param_st, align 8
  %31 = alloca %struct.ossl_param_st, align 8
  %32 = alloca %struct.ossl_param_st, align 8
  store ptr %0, ptr %10, align 8, !tbaa !3
  store ptr %1, ptr %11, align 8, !tbaa !8
  store ptr %2, ptr %12, align 8, !tbaa !10
  store ptr %3, ptr %13, align 8, !tbaa !8
  store i64 %4, ptr %14, align 8, !tbaa !12
  store ptr %5, ptr %15, align 8, !tbaa !8
  store i64 %6, ptr %16, align 8, !tbaa !12
  store ptr %7, ptr %17, align 8, !tbaa !8
  store i64 %8, ptr %18, align 8, !tbaa !12
  call void @llvm.lifetime.start.p0(i64 4, ptr %19) #4
  store i32 0, ptr %19, align 4, !tbaa !14
  call void @llvm.lifetime.start.p0(i64 8, ptr %20) #4
  store ptr null, ptr %20, align 8, !tbaa !16
  call void @llvm.lifetime.start.p0(i64 8, ptr %21) #4
  store ptr null, ptr %21, align 8, !tbaa !18
  call void @llvm.lifetime.start.p0(i64 320, ptr %22) #4
  call void @llvm.lifetime.start.p0(i64 8, ptr %23) #4
  %33 = getelementptr inbounds [8 x %struct.ossl_param_st], ptr %22, i64 0, i64 0
  store ptr %33, ptr %23, align 8, !tbaa !20
  call void @llvm.lifetime.start.p0(i64 4, ptr %24) #4
  store i32 0, ptr %24, align 4, !tbaa !14
  call void @llvm.lifetime.start.p0(i64 4, ptr %25) #4
  store i32 1, ptr %25, align 4, !tbaa !14
  call void @llvm.lifetime.start.p0(i64 8, ptr %26) #4
  %34 = load ptr, ptr %12, align 8, !tbaa !10
  %35 = call ptr @EVP_MD_get0_name(ptr noundef %34)
  store ptr %35, ptr %26, align 8, !tbaa !8
  %36 = icmp eq ptr %35, null
  br i1 %36, label %46, label %37

37:                                               ; preds = %9
  %38 = load ptr, ptr %10, align 8, !tbaa !3
  %39 = load ptr, ptr %11, align 8, !tbaa !8
  %40 = call ptr @EVP_KDF_fetch(ptr noundef %38, ptr noundef @.str, ptr noundef %39)
  store ptr %40, ptr %20, align 8, !tbaa !16
  %41 = icmp eq ptr %40, null
  br i1 %41, label %46, label %42

42:                                               ; preds = %37
  %43 = load ptr, ptr %20, align 8, !tbaa !16
  %44 = call ptr @EVP_KDF_CTX_new(ptr noundef %43)
  store ptr %44, ptr %21, align 8, !tbaa !18
  %45 = icmp eq ptr %44, null
  br i1 %45, label %46, label %47

46:                                               ; preds = %42, %37, %9
  br label %70

47:                                               ; preds = %42
  %48 = load ptr, ptr %23, align 8, !tbaa !20
  %49 = getelementptr inbounds nuw %struct.ossl_param_st, ptr %48, i32 1
  store ptr %49, ptr %23, align 8, !tbaa !20
  call void @llvm.lifetime.start.p0(i64 40, ptr %27) #4
  call void @OSSL_PARAM_construct_int(ptr dead_on_unwind writable sret(%struct.ossl_param_st) align 8 %27, ptr noundef @.str.1, ptr noundef %24)
  call void @llvm.memcpy.p0.p0.i64(ptr align 8 %48, ptr align 8 %27, i64 40, i1 false), !tbaa.struct !22
  call void @llvm.lifetime.end.p0(i64 40, ptr %27) #4
  %50 = load ptr, ptr %23, align 8, !tbaa !20
  %51 = getelementptr inbounds nuw %struct.ossl_param_st, ptr %50, i32 1
  store ptr %51, ptr %23, align 8, !tbaa !20
  call void @llvm.lifetime.start.p0(i64 40, ptr %28) #4
  call void @OSSL_PARAM_construct_int(ptr dead_on_unwind writable sret(%struct.ossl_param_st) align 8 %28, ptr noundef @.str.2, ptr noundef %25)
  call void @llvm.memcpy.p0.p0.i64(ptr align 8 %50, ptr align 8 %28, i64 40, i1 false), !tbaa.struct !22
  call void @llvm.lifetime.end.p0(i64 40, ptr %28) #4
  %52 = load ptr, ptr %23, align 8, !tbaa !20
  %53 = getelementptr inbounds nuw %struct.ossl_param_st, ptr %52, i32 1
  store ptr %53, ptr %23, align 8, !tbaa !20
  call void @llvm.lifetime.start.p0(i64 40, ptr %29) #4
  %54 = load ptr, ptr %26, align 8, !tbaa !8
  call void @OSSL_PARAM_construct_utf8_string(ptr dead_on_unwind writable sret(%struct.ossl_param_st) align 8 %29, ptr noundef @.str.3, ptr noundef %54, i64 noundef 0)
  call void @llvm.memcpy.p0.p0.i64(ptr align 8 %52, ptr align 8 %29, i64 40, i1 false), !tbaa.struct !22
  call void @llvm.lifetime.end.p0(i64 40, ptr %29) #4
  %55 = load ptr, ptr %23, align 8, !tbaa !20
  %56 = getelementptr inbounds nuw %struct.ossl_param_st, ptr %55, i32 1
  store ptr %56, ptr %23, align 8, !tbaa !20
  call void @llvm.lifetime.start.p0(i64 40, ptr %30) #4
  %57 = load ptr, ptr %13, align 8, !tbaa !8
  %58 = load i64, ptr %14, align 8, !tbaa !12
  call void @OSSL_PARAM_construct_octet_string(ptr dead_on_unwind writable sret(%struct.ossl_param_st) align 8 %30, ptr noundef @.str.4, ptr noundef %57, i64 noundef %58)
  call void @llvm.memcpy.p0.p0.i64(ptr align 8 %55, ptr align 8 %30, i64 40, i1 false), !tbaa.struct !22
  call void @llvm.lifetime.end.p0(i64 40, ptr %30) #4
  %59 = load ptr, ptr %23, align 8, !tbaa !20
  %60 = getelementptr inbounds nuw %struct.ossl_param_st, ptr %59, i32 1
  store ptr %60, ptr %23, align 8, !tbaa !20
  call void @llvm.lifetime.start.p0(i64 40, ptr %31) #4
  %61 = load ptr, ptr %15, align 8, !tbaa !8
  %62 = load i64, ptr %16, align 8, !tbaa !12
  call void @OSSL_PARAM_construct_octet_string(ptr dead_on_unwind writable sret(%struct.ossl_param_st) align 8 %31, ptr noundef @.str.5, ptr noundef %61, i64 noundef %62)
  call void @llvm.memcpy.p0.p0.i64(ptr align 8 %59, ptr align 8 %31, i64 40, i1 false), !tbaa.struct !22
  call void @llvm.lifetime.end.p0(i64 40, ptr %31) #4
  %63 = load ptr, ptr %23, align 8, !tbaa !20
  %64 = getelementptr inbounds nuw %struct.ossl_param_st, ptr %63, i32 1
  store ptr %64, ptr %23, align 8, !tbaa !20
  call void @llvm.lifetime.start.p0(i64 40, ptr %32) #4
  call void @OSSL_PARAM_construct_end(ptr dead_on_unwind writable sret(%struct.ossl_param_st) align 8 %32)
  call void @llvm.memcpy.p0.p0.i64(ptr align 8 %63, ptr align 8 %32, i64 40, i1 false), !tbaa.struct !22
  call void @llvm.lifetime.end.p0(i64 40, ptr %32) #4
  %65 = load ptr, ptr %21, align 8, !tbaa !18
  %66 = load ptr, ptr %17, align 8, !tbaa !8
  %67 = load i64, ptr %18, align 8, !tbaa !12
  %68 = getelementptr inbounds [8 x %struct.ossl_param_st], ptr %22, i64 0, i64 0
  %69 = call i32 @EVP_KDF_derive(ptr noundef %65, ptr noundef %66, i64 noundef %67, ptr noundef %68)
  store i32 %69, ptr %19, align 4, !tbaa !14
  br label %70

70:                                               ; preds = %47, %46
  %71 = load ptr, ptr %21, align 8, !tbaa !18
  call void @EVP_KDF_CTX_free(ptr noundef %71)
  %72 = load ptr, ptr %20, align 8, !tbaa !16
  call void @EVP_KDF_free(ptr noundef %72)
  %73 = load i32, ptr %19, align 4, !tbaa !14
  call void @llvm.lifetime.end.p0(i64 8, ptr %26) #4
  call void @llvm.lifetime.end.p0(i64 4, ptr %25) #4
  call void @llvm.lifetime.end.p0(i64 4, ptr %24) #4
  call void @llvm.lifetime.end.p0(i64 8, ptr %23) #4
  call void @llvm.lifetime.end.p0(i64 320, ptr %22) #4
  call void @llvm.lifetime.end.p0(i64 8, ptr %21) #4
  call void @llvm.lifetime.end.p0(i64 8, ptr %20) #4
  call void @llvm.lifetime.end.p0(i64 4, ptr %19) #4
  ret i32 %73
}