; Function Attrs: nounwind uwtable
define i32 @ossl_quic_hkdf_extract(ptr noundef %0, ptr noundef %1, ptr noundef %2, ptr noundef %3, i64 noundef %4, ptr noundef %5, i64 noundef %6, ptr noundef %7, i64 noundef %8) local_unnamed_addr #0 {
  %10 = alloca [8 x %struct.ossl_param_st], align 16
  %11 = alloca i32, align 4
  %12 = alloca i32, align 4
  %13 = alloca %struct.ossl_param_st, align 8
  %14 = alloca %struct.ossl_param_st, align 8
  %15 = alloca %struct.ossl_param_st, align 8
  %16 = alloca %struct.ossl_param_st, align 8
  %17 = alloca %struct.ossl_param_st, align 8
  call void @llvm.lifetime.start.p0(i64 320, ptr nonnull %10) #5
  call void @llvm.lifetime.start.p0(i64 4, ptr nonnull %11) #5
  store i32 0, ptr %11, align 4, !tbaa !3
  call void @llvm.lifetime.start.p0(i64 4, ptr nonnull %12) #5
  store i32 1, ptr %12, align 4, !tbaa !3
  %18 = tail call ptr @EVP_MD_get0_name(ptr noundef %2) #5
  %19 = icmp eq ptr %18, null
  br i1 %19, label %33, label %20

20:                                               ; preds = %9
  %21 = tail call ptr @EVP_KDF_fetch(ptr noundef %0, ptr noundef nonnull @.str, ptr noundef %1) #5
  %22 = icmp eq ptr %21, null
  br i1 %22, label %33, label %23

23:                                               ; preds = %20
  %24 = tail call ptr @EVP_KDF_CTX_new(ptr noundef nonnull %21) #5
  %25 = icmp eq ptr %24, null
  br i1 %25, label %33, label %26

26:                                               ; preds = %23
  %27 = getelementptr inbounds nuw i8, ptr %10, i64 40
  call void @OSSL_PARAM_construct_int(ptr dead_on_unwind nonnull writable sret(%struct.ossl_param_st) align 8 %10, ptr noundef nonnull @.str.1, ptr noundef nonnull %11) #5
  %28 = getelementptr inbounds nuw i8, ptr %10, i64 80
  call void @llvm.lifetime.start.p0(i64 40, ptr nonnull %13) #5
  call void @OSSL_PARAM_construct_int(ptr dead_on_unwind nonnull writable sret(%struct.ossl_param_st) align 8 %13, ptr noundef nonnull @.str.2, ptr noundef nonnull %12) #5
  call void @llvm.memcpy.p0.p0.i64(ptr noundef nonnull align 8 dereferenceable(40) %27, ptr noundef nonnull align 8 dereferenceable(40) %13, i64 40, i1 false), !tbaa.struct !7
  call void @llvm.lifetime.end.p0(i64 40, ptr nonnull %13) #5
  %29 = getelementptr inbounds nuw i8, ptr %10, i64 120
  call void @llvm.lifetime.start.p0(i64 40, ptr nonnull %14) #5
  call void @OSSL_PARAM_construct_utf8_string(ptr dead_on_unwind nonnull writable sret(%struct.ossl_param_st) align 8 %14, ptr noundef nonnull @.str.3, ptr noundef nonnull %18, i64 noundef 0) #5
  call void @llvm.memcpy.p0.p0.i64(ptr noundef nonnull align 16 dereferenceable(40) %28, ptr noundef nonnull align 8 dereferenceable(40) %14, i64 40, i1 false), !tbaa.struct !7
  call void @llvm.lifetime.end.p0(i64 40, ptr nonnull %14) #5
  %30 = getelementptr inbounds nuw i8, ptr %10, i64 160
  call void @llvm.lifetime.start.p0(i64 40, ptr nonnull %15) #5
  call void @OSSL_PARAM_construct_octet_string(ptr dead_on_unwind nonnull writable sret(%struct.ossl_param_st) align 8 %15, ptr noundef nonnull @.str.4, ptr noundef %3, i64 noundef %4) #5
  call void @llvm.memcpy.p0.p0.i64(ptr noundef nonnull align 8 dereferenceable(40) %29, ptr noundef nonnull align 8 dereferenceable(40) %15, i64 40, i1 false), !tbaa.struct !7
  call void @llvm.lifetime.end.p0(i64 40, ptr nonnull %15) #5
  %31 = getelementptr inbounds nuw i8, ptr %10, i64 200
  call void @llvm.lifetime.start.p0(i64 40, ptr nonnull %16) #5
  call void @OSSL_PARAM_construct_octet_string(ptr dead_on_unwind nonnull writable sret(%struct.ossl_param_st) align 8 %16, ptr noundef nonnull @.str.5, ptr noundef %5, i64 noundef %6) #5
  call void @llvm.memcpy.p0.p0.i64(ptr noundef nonnull align 16 dereferenceable(40) %30, ptr noundef nonnull align 8 dereferenceable(40) %16, i64 40, i1 false), !tbaa.struct !7
  call void @llvm.lifetime.end.p0(i64 40, ptr nonnull %16) #5
  call void @llvm.lifetime.start.p0(i64 40, ptr nonnull %17) #5
  call void @OSSL_PARAM_construct_end(ptr dead_on_unwind nonnull writable sret(%struct.ossl_param_st) align 8 %17) #5
  call void @llvm.memcpy.p0.p0.i64(ptr noundef nonnull align 8 dereferenceable(40) %31, ptr noundef nonnull align 8 dereferenceable(40) %17, i64 40, i1 false), !tbaa.struct !7
  call void @llvm.lifetime.end.p0(i64 40, ptr nonnull %17) #5
  %32 = call i32 @EVP_KDF_derive(ptr noundef nonnull %24, ptr noundef %7, i64 noundef %8, ptr noundef nonnull %10) #5
  br label %33

33:                                               ; preds = %9, %20, %23, %26
  %.021 = phi ptr [ null, %9 ], [ null, %20 ], [ %21, %23 ], [ %21, %26 ]
  %.020 = phi ptr [ null, %9 ], [ null, %20 ], [ null, %23 ], [ %24, %26 ]
  %.0 = phi i32 [ 0, %9 ], [ 0, %20 ], [ 0, %23 ], [ %32, %26 ]
  call void @EVP_KDF_CTX_free(ptr noundef %.020) #5
  call void @EVP_KDF_free(ptr noundef %.021) #5
  call void @llvm.lifetime.end.p0(i64 4, ptr nonnull %12) #5
  call void @llvm.lifetime.end.p0(i64 4, ptr nonnull %11) #5
  call void @llvm.lifetime.end.p0(i64 320, ptr nonnull %10) #5
  ret i32 %.0
}